target datalayout = "e-m:e-p270:32:32-p271:32:32-p272:64:64-i64:64-i128:128-f80:128-n8:16:32:64-S128"
target triple = "x86_64-pc-linux-gnu"

%struct.DICTIONARY_ID = type { i64 }
%class.anon = type { i8 }
%"class.std::shared_ptr" = type { %"class.std::__shared_ptr" }
%"class.std::__shared_ptr" = type { ptr, %"class.std::__shared_count" }
%"class.std::__shared_count" = type { ptr }
%"class.toku::locktree" = type { ptr, %struct.DICTIONARY_ID, i32, [4 x i8], %"class.toku::comparator", ptr, ptr, ptr, ptr, %"struct.toku::lt_lock_request_info", i64, %"class.toku::range_buffer", i32, i64, i64 }
%"class.toku::comparator" = type <{ ptr, ptr, i8, [7 x i8] }>
%"struct.toku::lt_lock_request_info" = type <{ %"class.toku::omt", %"struct.std::atomic", [7 x i8], %"class.std::shared_ptr.0", i8, [7 x i8], %"struct.toku::lt_counters", %"struct.std::atomic.3", i64, %struct.toku_mutex_t, %struct.toku_cond_t, i8, [7 x i8] }>
%"class.toku::omt" = type { i8, i32, %union.anon }
%union.anon = type { %"struct.toku::omt<toku::lock_request *>::omt_array" }
%"struct.toku::omt<toku::lock_request *>::omt_array" = type { i32, i32, ptr }
%"struct.std::atomic" = type { %"struct.std::__atomic_base" }
%"struct.std::__atomic_base" = type { i8 }
%"class.std::shared_ptr.0" = type { %"class.std::__shared_ptr.1" }
%"class.std::__shared_ptr.1" = type { ptr, %"class.std::__shared_count" }
%"struct.toku::lt_counters" = type { i64, i64, i64, i64, i64 }
%"struct.std::atomic.3" = type { %"struct.std::__atomic_base.4" }
%"struct.std::__atomic_base.4" = type { i64 }
%struct.toku_mutex_t = type { %union.pthread_mutex_t, ptr }
%union.pthread_mutex_t = type { %struct.__pthread_mutex_s }
%struct.__pthread_mutex_s = type { i32, i32, i32, i32, i32, i16, i16, %struct.__pthread_internal_list }
%struct.__pthread_internal_list = type { ptr, ptr }
%struct.toku_cond_t = type { %union.pthread_cond_t, ptr }
%union.pthread_cond_t = type { %struct.__pthread_cond_s }
%struct.__pthread_cond_s = type { %union.__atomic_wide_counter, %union.__atomic_wide_counter, [2 x i32], [2 x i32], i32, i32, [2 x i32] }
%union.__atomic_wide_counter = type { i64 }
%"class.toku::range_buffer" = type <{ %class.memarena, i32, [4 x i8] }>
%class.memarena = type { %"struct.memarena::arena_chunk", ptr, i32, i64, i64 }
%"struct.memarena::arena_chunk" = type { ptr, i64, i64 }
%"class.std::_Sp_counted_base" = type { ptr, i32, i32 }

@__libc_single_threaded = external global i8, align 1

; Function Attrs: alwaysinline mustprogress nounwind uwtable
define linkonce_odr void @_ZN9__gnu_cxx12__atomic_addEPVii(ptr noundef %0, i32 noundef %1) #8 comdat {
  %3 = alloca ptr, align 8
  %4 = alloca i32, align 4
  %5 = alloca i32, align 4
  %6 = alloca i32, align 4
  store ptr %0, ptr %3, align 8, !tbaa !87
  store i32 %1, ptr %4, align 4, !tbaa !81
  %7 = load ptr, ptr %3, align 8, !tbaa !87
  %8 = load i32, ptr %4, align 4, !tbaa !81
  store i32 %8, ptr %5, align 4, !tbaa !81
  %9 = load i32, ptr %5, align 4
  %10 = atomicrmw volatile add ptr %7, i32 %9 acq_rel, align 4
  store i32 %10, ptr %6, align 4
  ret void
}

; Function Attrs: alwaysinline mustprogress nounwind uwtable
define linkonce_odr void @_ZN9__gnu_cxx19__atomic_add_singleEPii(ptr noundef %0, i32 noundef %1) #8 comdat {
  %3 = alloca ptr, align 8
  %4 = alloca i32, align 4
  store ptr %0, ptr %3, align 8, !tbaa !87
  store i32 %1, ptr %4, align 4, !tbaa !81
  %5 = load i32, ptr %4, align 4, !tbaa !81
  %6 = load ptr, ptr %3, align 8, !tbaa !87
  %7 = load i32, ptr %6, align 4, !tbaa !81
  %8 = add nsw i32 %7, %5
  store i32 %8, ptr %6, align 4, !tbaa !81
  ret void
}

; Function Attrs: alwaysinline mustprogress nounwind uwtable
define linkonce_odr noundef zeroext i1 @_ZN9__gnu_cxx20__is_single_threadedEv() #8 comdat {
  %1 = load i8, ptr @__libc_single_threaded, align 1, !tbaa !85
  %2 = icmp ne i8 %1, 0
  ret i1 %2
}

; Function Attrs: alwaysinline mustprogress uwtable
define linkonce_odr void @_ZN9__gnu_cxx21__atomic_add_dispatchEPii(ptr noundef %0, i32 noundef %1) #11 comdat {
  %3 = alloca ptr, align 8
  %4 = alloca i32, align 4
  store ptr %0, ptr %3, align 8, !tbaa !87
  store i32 %1, ptr %4, align 4, !tbaa !81
  %5 = call noundef zeroext i1 @_ZN9__gnu_cxx20__is_single_threadedEv() #18
  br i1 %5, label %6, label %9

6:                                                ; preds = %2
  %7 = load ptr, ptr %3, align 8, !tbaa !87
  %8 = load i32, ptr %4, align 4, !tbaa !81
  call void @_ZN9__gnu_cxx19__atomic_add_singleEPii(ptr noundef %7, i32 noundef %8)
  br label %12

9:                                                ; preds = %2
  %10 = load ptr, ptr %3, align 8, !tbaa !87
  %11 = load i32, ptr %4, align 4, !tbaa !81
  call void @_ZN9__gnu_cxx12__atomic_addEPVii(ptr noundef %10, i32 noundef %11)
  br label %12

12:                                               ; preds = %9, %6
  ret void
}

; Function Attrs: noinline noreturn nounwind uwtable
define linkonce_odr hidden void @__clang_call_terminate(ptr noundef %0) #10 comdat {
  %2 = call ptr @__cxa_begin_catch(ptr %0) #18
  call void @_ZSt9terminatev() #21
  unreachable
}

; Function Attrs: mustprogress uwtable
define linkonce_odr void @_ZNSt16_Sp_counted_baseILN9__gnu_cxx12_Lock_policyE2EE15_M_add_ref_copyEv(ptr noundef nonnull align 8 dereferenceable(16) %0) #0 comdat align 2 {
  %2 = alloca ptr, align 8
  store ptr %0, ptr %2, align 8, !tbaa !190
  %3 = load ptr, ptr %2, align 8
  %4 = getelementptr inbounds nuw %"class.std::_Sp_counted_base", ptr %3, i32 0, i32 1
  call void @_ZN9__gnu_cxx21__atomic_add_dispatchEPii(ptr noundef %4, i32 noundef 1)
  ret void
}

; Function Attrs: mustprogress nounwind uwtable
define linkonce_odr void @_ZNSt14__shared_countILN9__gnu_cxx12_Lock_policyE2EEC2ERKS2_(ptr noundef nonnull align 8 dereferenceable(8) %0, ptr noundef nonnull align 8 dereferenceable(8) %1) unnamed_addr #5 comdat align 2 personality ptr @__gxx_personality_v0 {
  %3 = alloca ptr, align 8
  %4 = alloca ptr, align 8
  store ptr %0, ptr %3, align 8, !tbaa !187
  store ptr %1, ptr %4, align 8, !tbaa !187
  %5 = load ptr, ptr %3, align 8
  %6 = getelementptr inbounds nuw %"class.std::__shared_count", ptr %5, i32 0, i32 0
  %7 = load ptr, ptr %4, align 8, !tbaa !187
  %8 = getelementptr inbounds nuw %"class.std::__shared_count", ptr %7, i32 0, i32 0
  %9 = load ptr, ptr %8, align 8, !tbaa !189
  store ptr %9, ptr %6, align 8, !tbaa !189
  %10 = getelementptr inbounds nuw %"class.std::__shared_count", ptr %5, i32 0, i32 0
  %11 = load ptr, ptr %10, align 8, !tbaa !189
  %12 = icmp ne ptr %11, null
  br i1 %12, label %13, label %17

13:                                               ; preds = %2
  %14 = getelementptr inbounds nuw %"class.std::__shared_count", ptr %5, i32 0, i32 0
  %15 = load ptr, ptr %14, align 8, !tbaa !189
  invoke void @_ZNSt16_Sp_counted_baseILN9__gnu_cxx12_Lock_policyE2EE15_M_add_ref_copyEv(ptr noundef nonnull align 8 dereferenceable(16) %15)
          to label %16 unwind label %18

16:                                               ; preds = %13
  br label %17

17:                                               ; preds = %16, %2
  ret void

18:                                               ; preds = %13
  %19 = landingpad { ptr, i32 }
          catch ptr null
  %20 = extractvalue { ptr, i32 } %19, 0
  call void @__clang_call_terminate(ptr %20) #21
  unreachable
}

; Function Attrs: mustprogress nounwind uwtable
define linkonce_odr void @_ZN4toku10comparator4initEPFiPvPK10__toku_dbtS4_ES1_h(ptr noundef nonnull align 8 dereferenceable(17) %0, ptr noundef %1, ptr noundef %2, i8 noundef zeroext %3) #5 comdat align 2 {
  %5 = alloca ptr, align 8
  %6 = alloca ptr, align 8
  %7 = alloca ptr, align 8
  %8 = alloca i8, align 1
  store ptr %0, ptr %5, align 8, !tbaa !11
  store ptr %1, ptr %6, align 8, !tbaa !55
  store ptr %2, ptr %7, align 8, !tbaa !55
  store i8 %3, ptr %8, align 1, !tbaa !85
  %9 = load ptr, ptr %5, align 8
  %10 = load ptr, ptr %6, align 8, !tbaa !55
  %11 = getelementptr inbounds nuw %"class.toku::comparator", ptr %9, i32 0, i32 0
  store ptr %10, ptr %11, align 8, !tbaa !180
  %12 = load ptr, ptr %7, align 8, !tbaa !55
  %13 = getelementptr inbounds nuw %"class.toku::comparator", ptr %9, i32 0, i32 1
  store ptr %12, ptr %13, align 8, !tbaa !181
  %14 = load i8, ptr %8, align 1, !tbaa !85
  %15 = getelementptr inbounds nuw %"class.toku::comparator", ptr %9, i32 0, i32 2
  store i8 %14, ptr %15, align 8, !tbaa !182
  ret void
}

; Function Attrs: mustprogress nounwind uwtable
define linkonce_odr void @_ZNSt12__shared_ptrIN7rocksdb25TransactionDBMutexFactoryELN9__gnu_cxx12_Lock_policyE2EEC2ERKS4_(ptr noundef nonnull align 8 dereferenceable(16) %0, ptr noundef nonnull align 8 dereferenceable(16) %1) unnamed_addr #5 comdat align 2 {
  %3 = alloca ptr, align 8
  %4 = alloca ptr, align 8
  store ptr %0, ptr %3, align 8, !tbaa !60
  store ptr %1, ptr %4, align 8, !tbaa !60
  %5 = load ptr, ptr %3, align 8
  %6 = getelementptr inbounds nuw %"class.std::__shared_ptr", ptr %5, i32 0, i32 0
  %7 = load ptr, ptr %4, align 8, !tbaa !60
  %8 = getelementptr inbounds nuw %"class.std::__shared_ptr", ptr %7, i32 0, i32 0
  %9 = load ptr, ptr %8, align 8, !tbaa !184
  store ptr %9, ptr %6, align 8, !tbaa !184
  %10 = getelementptr inbounds nuw %"class.std::__shared_ptr", ptr %5, i32 0, i32 1
  %11 = load ptr, ptr %4, align 8, !tbaa !60
  %12 = getelementptr inbounds nuw %"class.std::__shared_ptr", ptr %11, i32 0, i32 1
  call void @_ZNSt14__shared_countILN9__gnu_cxx12_Lock_policyE2EEC2ERKS2_(ptr noundef nonnull align 8 dereferenceable(8) %10, ptr noundef nonnull align 8 dereferenceable(8) %12) #18
  ret void
}

; Function Attrs: mustprogress uwtable
define linkonce_odr void @_ZN4toku10comparator7inheritERKS0_(ptr noundef nonnull align 8 dereferenceable(17) %0, ptr noundef nonnull align 8 dereferenceable(17) %1) #0 comdat align 2 {
  %3 = alloca ptr, align 8
  %4 = alloca ptr, align 8
  store ptr %0, ptr %3, align 8, !tbaa !11
  store ptr %1, ptr %4, align 8, !tbaa !11
  %5 = load ptr, ptr %3, align 8
  %6 = load ptr, ptr %4, align 8, !tbaa !11
  %7 = getelementptr inbounds nuw %"class.toku::comparator", ptr %6, i32 0, i32 0
  %8 = load ptr, ptr %7, align 8, !tbaa !180
  %9 = load ptr, ptr %4, align 8, !tbaa !11
  %10 = getelementptr inbounds nuw %"class.toku::comparator", ptr %9, i32 0, i32 1
  %11 = load ptr, ptr %10, align 8, !tbaa !181
  %12 = load ptr, ptr %4, align 8, !tbaa !11
  %13 = getelementptr inbounds nuw %"class.toku::comparator", ptr %12, i32 0, i32 2
  %14 = load i8, ptr %13, align 8, !tbaa !182
  call void @_ZN4toku10comparator4initEPFiPvPK10__toku_dbtS4_ES1_h(ptr noundef nonnull align 8 dereferenceable(17) %5, ptr noundef %8, ptr noundef %11, i8 noundef zeroext %14)
  ret void
}

; Function Attrs: mustprogress nounwind uwtable
define linkonce_odr void @_ZNSt10shared_ptrIN7rocksdb25TransactionDBMutexFactoryEEC2ERKS2_(ptr noundef nonnull align 8 dereferenceable(16) %0, ptr noundef nonnull align 8 dereferenceable(16) %1) unnamed_addr #5 comdat align 2 {
  %3 = alloca ptr, align 8
  %4 = alloca ptr, align 8
  store ptr %0, ptr %3, align 8, !tbaa !13
  store ptr %1, ptr %4, align 8, !tbaa !13
  %5 = load ptr, ptr %3, align 8
  %6 = load ptr, ptr %4, align 8, !tbaa !13
  call void @_ZNSt12__shared_ptrIN7rocksdb25TransactionDBMutexFactoryELN9__gnu_cxx12_Lock_policyE2EEC2ERKS4_(ptr noundef nonnull align 8 dereferenceable(16) %5, ptr noundef nonnull align 8 dereferenceable(16) %6) #18
  ret void
}

; Function Attrs: inlinehint mustprogress nounwind uwtable
define internal noundef ptr @"_ZZN4toku8locktree6createEPNS_16locktree_managerE13DICTIONARY_IDRKNS_10comparatorESt10shared_ptrIN7rocksdb25TransactionDBMutexFactoryEEENK3$_0cvPFbPK10__toku_dbtSE_PvEEv"(ptr noundef nonnull align 1 dereferenceable(1) %0) #4 align 2 {
  %2 = alloca ptr, align 8
  store ptr %0, ptr %2, align 8, !tbaa !55
  ret ptr @"_ZZN4toku8locktree6createEPNS_16locktree_managerE13DICTIONARY_IDRKNS_10comparatorESt10shared_ptrIN7rocksdb25TransactionDBMutexFactoryEEEN3$_08__invokeEPK10__toku_dbtSE_Pv"
}

; Function Attrs: mustprogress uwtable
define linkonce_odr void @_ZN4toku10comparator11create_fromERKS0_(ptr noundef nonnull align 8 dereferenceable(17) %0, ptr noundef nonnull align 8 dereferenceable(17) %1) #0 comdat align 2 {
  %3 = alloca ptr, align 8
  %4 = alloca ptr, align 8
  store ptr %0, ptr %3, align 8, !tbaa !11
  store ptr %1, ptr %4, align 8, !tbaa !11
  %5 = load ptr, ptr %3, align 8
  %6 = load ptr, ptr %4, align 8, !tbaa !11
  call void @_ZN4toku10comparator7inheritERKS0_(ptr noundef nonnull align 8 dereferenceable(17) %5, ptr noundef nonnull align 8 dereferenceable(17) %6)
  ret void
}

; Function Attrs: mustprogress uwtable
define void @_ZN4toku8locktree6createEPNS_16locktree_managerE13DICTIONARY_IDRKNS_10comparatorESt10shared_ptrIN7rocksdb25TransactionDBMutexFactoryEE(ptr noundef nonnull align 8 dereferenceable(400) %0, ptr noundef %1, i64 %2, ptr noundef nonnull align 8 dereferenceable(17) %3, ptr noundef %4) #0 align 2 personality ptr @__gxx_personality_v0 {
  %6 = alloca %struct.DICTIONARY_ID, align 8
  %7 = alloca ptr, align 8
  %8 = alloca ptr, align 8
  %9 = alloca ptr, align 8
  %10 = alloca ptr, align 8
  %11 = alloca %class.anon, align 1
  %12 = alloca %"class.std::shared_ptr", align 8
  %13 = alloca ptr, align 8
  %14 = alloca i32, align 4
  %15 = getelementptr inbounds nuw %struct.DICTIONARY_ID, ptr %6, i32 0, i32 0
  store i64 %2, ptr %15, align 8
  store ptr %0, ptr %7, align 8, !tbaa !4
  store ptr %1, ptr %8, align 8, !tbaa !9
  store ptr %3, ptr %9, align 8, !tbaa !11
  store ptr %4, ptr %10, align 8, !tbaa !13
  %16 = load ptr, ptr %7, align 8
  %17 = load ptr, ptr %8, align 8, !tbaa !9
  %18 = getelementptr inbounds nuw %"class.toku::locktree", ptr %16, i32 0, i32 0
  store ptr %17, ptr %18, align 8, !tbaa !15
  %19 = getelementptr inbounds nuw %"class.toku::locktree", ptr %16, i32 0, i32 1
  call void @llvm.memcpy.p0.p0.i64(ptr align 8 %19, ptr align 8 %6, i64 8, i1 false), !tbaa.struct !45
  %20 = getelementptr inbounds nuw %"class.toku::locktree", ptr %16, i32 0, i32 4
  %21 = load ptr, ptr %9, align 8, !tbaa !11
  call void @_ZN4toku10comparator11create_fromERKS0_(ptr noundef nonnull align 8 dereferenceable(17) %20, ptr noundef nonnull align 8 dereferenceable(17) %21)
  %22 = getelementptr inbounds nuw %"class.toku::locktree", ptr %16, i32 0, i32 2
  store i32 1, ptr %22, align 8, !tbaa !47
  %23 = getelementptr inbounds nuw %"class.toku::locktree", ptr %16, i32 0, i32 8
  store ptr null, ptr %23, align 8, !tbaa !48
  %24 = call noundef ptr @_Z12toku_xcallocmm(i64 noundef 1, i64 noundef 208)
  %25 = getelementptr inbounds nuw %"class.toku::locktree", ptr %16, i32 0, i32 7
  store ptr %24, ptr %25, align 8, !tbaa !49
  %26 = getelementptr inbounds nuw %"class.toku::locktree", ptr %16, i32 0, i32 7
  %27 = load ptr, ptr %26, align 8, !tbaa !49
  %28 = getelementptr inbounds nuw %"class.toku::locktree", ptr %16, i32 0, i32 4
  call void @_ZN4toku15concurrent_tree6createEPKNS_10comparatorE(ptr noundef nonnull align 8 dereferenceable(208) %27, ptr noundef %28)
  %29 = getelementptr inbounds nuw %"class.toku::locktree", ptr %16, i32 0, i32 10
  store i64 0, ptr %29, align 8, !tbaa !50
  %30 = getelementptr inbounds nuw %"class.toku::locktree", ptr %16, i32 0, i32 11
  call void @_ZN4toku12range_buffer6createEv(ptr noundef nonnull align 8 dereferenceable(60) %30)
  %31 = getelementptr inbounds nuw %"class.toku::locktree", ptr %16, i32 0, i32 12
  store i32 100, ptr %31, align 8, !tbaa !51
  %32 = getelementptr inbounds nuw %"class.toku::locktree", ptr %16, i32 0, i32 13
  store i64 0, ptr %32, align 8, !tbaa !52
  %33 = getelementptr inbounds nuw %"class.toku::locktree", ptr %16, i32 0, i32 14
  store i64 0, ptr %33, align 8, !tbaa !53
  call void @llvm.lifetime.start.p0(i64 1, ptr %11) #18
  %34 = call noundef ptr @"_ZZN4toku8locktree6createEPNS_16locktree_managerE13DICTIONARY_IDRKNS_10comparatorESt10shared_ptrIN7rocksdb25TransactionDBMutexFactoryEEENK3$_0cvPFbPK10__toku_dbtSE_PvEEv"(ptr noundef nonnull align 1 dereferenceable(1) %11) #18
  %35 = getelementptr inbounds nuw %"class.toku::locktree", ptr %16, i32 0, i32 5
  store ptr %34, ptr %35, align 8, !tbaa !54
  call void @llvm.lifetime.end.p0(i64 1, ptr %11) #18
  %36 = getelementptr inbounds nuw %"class.toku::locktree", ptr %16, i32 0, i32 9
  call void @_ZNSt10shared_ptrIN7rocksdb25TransactionDBMutexFactoryEEC2ERKS2_(ptr noundef nonnull align 8 dereferenceable(16) %12, ptr noundef nonnull align 8 dereferenceable(16) %4) #18
  invoke void @_ZN4toku20lt_lock_request_info4initESt10shared_ptrIN7rocksdb25TransactionDBMutexFactoryEE(ptr noundef nonnull align 8 dereferenceable(217) %36, ptr noundef %12)
          to label %37 unwind label %38

37:                                               ; preds = %5
  call void @_ZNSt12__shared_ptrIN7rocksdb25TransactionDBMutexFactoryELN9__gnu_cxx12_Lock_policyE2EED2Ev(ptr noundef nonnull align 8 dereferenceable(16) %12) #18
  ret void

38:                                               ; preds = %5
  %39 = landingpad { ptr, i32 }
          cleanup
  %40 = extractvalue { ptr, i32 } %39, 0
  store ptr %40, ptr %13, align 8
  %41 = extractvalue { ptr, i32 } %39, 1
  store i32 %41, ptr %14, align 4
  call void @_ZNSt12__shared_ptrIN7rocksdb25TransactionDBMutexFactoryELN9__gnu_cxx12_Lock_policyE2EED2Ev(ptr noundef nonnull align 8 dereferenceable(16) %12) #18
  br label %42

42:                                               ; preds = %38
  %43 = load ptr, ptr %13, align 8
  %44 = load i32, ptr %14, align 4
  %45 = insertvalue { ptr, i32 } poison, ptr %43, 0
  %46 = insertvalue { ptr, i32 } %45, i32 %44, 1
  resume { ptr, i32 } %46
}