; Function Attrs: mustprogress uwtable
define void @_ZN4toku8locktree6createEPNS_16locktree_managerE13DICTIONARY_IDRKNS_10comparatorESt10shared_ptrIN7rocksdb25TransactionDBMutexFactoryEE(ptr noundef nonnull align 8 dereferenceable(400) initializes((0, 20), (24, 41), (64, 80)) %0, ptr noundef %1, i64 %2, ptr noundef nonnull readonly align 8 captures(none) dereferenceable(17) %3, ptr noundef readonly captures(none) %4) local_unnamed_addr #0 align 2 personality ptr @__gxx_personality_v0 {
  %6 = alloca %"class.std::shared_ptr", align 8
  store ptr %1, ptr %0, align 8, !tbaa !4
  %7 = getelementptr inbounds nuw i8, ptr %0, i64 8
  store i64 %2, ptr %7, align 8, !tbaa !38
  %8 = getelementptr inbounds nuw i8, ptr %0, i64 24
  %9 = load ptr, ptr %3, align 8, !tbaa !39
  %10 = getelementptr inbounds nuw i8, ptr %3, i64 8
  %11 = load ptr, ptr %10, align 8, !tbaa !40
  %12 = getelementptr inbounds nuw i8, ptr %3, i64 16
  %13 = load i8, ptr %12, align 8, !tbaa !41
  store ptr %9, ptr %8, align 8, !tbaa !39
  %14 = getelementptr inbounds nuw i8, ptr %0, i64 32
  store ptr %11, ptr %14, align 8, !tbaa !40
  %15 = getelementptr inbounds nuw i8, ptr %0, i64 40
  store i8 %13, ptr %15, align 8, !tbaa !41
  %16 = getelementptr inbounds nuw i8, ptr %0, i64 16
  store i32 1, ptr %16, align 8, !tbaa !42
  %17 = getelementptr inbounds nuw i8, ptr %0, i64 72
  store ptr null, ptr %17, align 8, !tbaa !43
  %18 = tail call noundef ptr @_Z12toku_xcallocmm(i64 noundef 1, i64 noundef 208)
  %19 = getelementptr inbounds nuw i8, ptr %0, i64 64
  store ptr %18, ptr %19, align 8, !tbaa !44
  tail call void @_ZN4toku15concurrent_tree6createEPKNS_10comparatorE(ptr noundef nonnull align 8 dereferenceable(208) %18, ptr noundef nonnull %8)
  %20 = getelementptr inbounds nuw i8, ptr %0, i64 304
  store i64 0, ptr %20, align 8, !tbaa !45
  %21 = getelementptr inbounds nuw i8, ptr %0, i64 312
  tail call void @_ZN4toku12range_buffer6createEv(ptr noundef nonnull align 8 dereferenceable(60) %21)
  %22 = getelementptr inbounds nuw i8, ptr %0, i64 376
  store i32 100, ptr %22, align 8, !tbaa !46
  %23 = getelementptr inbounds nuw i8, ptr %0, i64 384
  %24 = getelementptr inbounds nuw i8, ptr %0, i64 48
  tail call void @llvm.memset.p0.i64(ptr noundef nonnull align 8 dereferenceable(16) %23, i8 0, i64 16, i1 false)
  store ptr @"_ZZN4toku8locktree6createEPNS_16locktree_managerE13DICTIONARY_IDRKNS_10comparatorESt10shared_ptrIN7rocksdb25TransactionDBMutexFactoryEEEN3$_08__invokeEPK10__toku_dbtSE_Pv", ptr %24, align 8, !tbaa !47
  %25 = getelementptr inbounds nuw i8, ptr %0, i64 80
  %26 = load ptr, ptr %4, align 8, !tbaa !48
  store ptr %26, ptr %6, align 8, !tbaa !48
  %27 = getelementptr inbounds nuw i8, ptr %6, i64 8
  %28 = getelementptr inbounds nuw i8, ptr %4, i64 8
  %29 = load ptr, ptr %28, align 8, !tbaa !51
  store ptr %29, ptr %27, align 8, !tbaa !51
  %.not.i.i.i = icmp eq ptr %29, null
  br i1 %.not.i.i.i, label %_ZNSt10shared_ptrIN7rocksdb25TransactionDBMutexFactoryEEC2ERKS2_.exit, label %30

30:                                               ; preds = %5
  %31 = getelementptr inbounds nuw i8, ptr %29, i64 8
  %32 = load i8, ptr @__libc_single_threaded, align 1, !tbaa !52
  %.not.i.i.i.i = icmp eq i8 %32, 0
  br i1 %.not.i.i.i.i, label %36, label %33

33:                                               ; preds = %30
  %34 = load i32, ptr %31, align 4, !tbaa !53
  %35 = add nsw i32 %34, 1
  store i32 %35, ptr %31, align 4, !tbaa !53
  br label %_ZNSt10shared_ptrIN7rocksdb25TransactionDBMutexFactoryEEC2ERKS2_.exit

36:                                               ; preds = %30
  %37 = atomicrmw volatile add ptr %31, i32 1 acq_rel, align 4
  br label %_ZNSt10shared_ptrIN7rocksdb25TransactionDBMutexFactoryEEC2ERKS2_.exit

_ZNSt10shared_ptrIN7rocksdb25TransactionDBMutexFactoryEEC2ERKS2_.exit: ; preds = %5, %33, %36
  invoke void @_ZN4toku20lt_lock_request_info4initESt10shared_ptrIN7rocksdb25TransactionDBMutexFactoryEE(ptr noundef nonnull align 8 dereferenceable(217) %25, ptr noundef nonnull %6)
          to label %38 unwind label %61

38:                                               ; preds = %_ZNSt10shared_ptrIN7rocksdb25TransactionDBMutexFactoryEEC2ERKS2_.exit
  %39 = load ptr, ptr %27, align 8, !tbaa !51
  %.not.i.i = icmp eq ptr %39, null
  br i1 %.not.i.i, label %_ZNSt12__shared_ptrIN7rocksdb25TransactionDBMutexFactoryELN9__gnu_cxx12_Lock_policyE2EED2Ev.exit, label %40

40:                                               ; preds = %38
  %41 = getelementptr inbounds nuw i8, ptr %39, i64 8
  %42 = load atomic i64, ptr %41 acquire, align 8
  %43 = icmp eq i64 %42, 4294967297
  %44 = trunc i64 %42 to i32
  br i1 %43, label %45, label %53

45:                                               ; preds = %40
  store i32 0, ptr %41, align 8, !tbaa !54
  %46 = getelementptr inbounds nuw i8, ptr %39, i64 12
  store i32 0, ptr %46, align 4, !tbaa !56
  %47 = load ptr, ptr %39, align 8, !tbaa !57
  %48 = getelementptr inbounds nuw i8, ptr %47, i64 16
  %49 = load ptr, ptr %48, align 8
  tail call void %49(ptr noundef nonnull align 8 dereferenceable(16) %39) #21
  %50 = load ptr, ptr %39, align 8, !tbaa !57
  %51 = getelementptr inbounds nuw i8, ptr %50, i64 24
  %52 = load ptr, ptr %51, align 8
  tail call void %52(ptr noundef nonnull align 8 dereferenceable(16) %39) #21
  br label %_ZNSt12__shared_ptrIN7rocksdb25TransactionDBMutexFactoryELN9__gnu_cxx12_Lock_policyE2EED2Ev.exit

53:                                               ; preds = %40
  %54 = load i8, ptr @__libc_single_threaded, align 1, !tbaa !52
  %.not.i.i.i4 = icmp eq i8 %54, 0
  br i1 %.not.i.i.i4, label %57, label %55

55:                                               ; preds = %53
  %56 = add nsw i32 %44, -1
  store i32 %56, ptr %41, align 4, !tbaa !53
  br label %_ZN9__gnu_cxx27__exchange_and_add_dispatchEPii.exit.i.i.i

57:                                               ; preds = %53
  %58 = atomicrmw volatile add ptr %41, i32 -1 acq_rel, align 4
  br label %_ZN9__gnu_cxx27__exchange_and_add_dispatchEPii.exit.i.i.i

_ZN9__gnu_cxx27__exchange_and_add_dispatchEPii.exit.i.i.i: ; preds = %57, %55
  %.0.i.i.i.i = phi i32 [ %44, %55 ], [ %58, %57 ]
  %59 = icmp eq i32 %.0.i.i.i.i, 1
  br i1 %59, label %60, label %_ZNSt12__shared_ptrIN7rocksdb25TransactionDBMutexFactoryELN9__gnu_cxx12_Lock_policyE2EED2Ev.exit, !prof !59

60:                                               ; preds = %_ZN9__gnu_cxx27__exchange_and_add_dispatchEPii.exit.i.i.i
  tail call void @_ZNSt16_Sp_counted_baseILN9__gnu_cxx12_Lock_policyE2EE24_M_release_last_use_coldEv(ptr noundef nonnull align 8 dereferenceable(16) %39) #21
  br label %_ZNSt12__shared_ptrIN7rocksdb25TransactionDBMutexFactoryELN9__gnu_cxx12_Lock_policyE2EED2Ev.exit

_ZNSt12__shared_ptrIN7rocksdb25TransactionDBMutexFactoryELN9__gnu_cxx12_Lock_policyE2EED2Ev.exit: ; preds = %38, %45, %_ZN9__gnu_cxx27__exchange_and_add_dispatchEPii.exit.i.i.i, %60
  ret void

61:                                               ; preds = %_ZNSt10shared_ptrIN7rocksdb25TransactionDBMutexFactoryEEC2ERKS2_.exit
  %62 = landingpad { ptr, i32 }
          cleanup
  call void @_ZNSt12__shared_ptrIN7rocksdb25TransactionDBMutexFactoryELN9__gnu_cxx12_Lock_policyE2EED2Ev(ptr noundef nonnull align 8 dereferenceable(16) %6) #21
  resume { ptr, i32 } %62
}